target datalayout = "e-m:e-p270:32:32-p271:32:32-p272:64:64-i64:64-i128:128-f80:128-n8:16:32:64-S128"
target triple = "x86_64-pc-linux-gnu"

%struct.opj_stream_private = type { ptr, ptr, i64, ptr, ptr, ptr, ptr, ptr, ptr, ptr, ptr, i64, i64, i64, i32 }

; Function Attrs: nounwind uwtable
define hidden void @opj_stream_destroy(ptr noundef %0) #0 {
  %2 = alloca ptr, align 8
  %3 = alloca ptr, align 8
  store ptr %0, ptr %2, align 8, !tbaa !52
  call void @llvm.lifetime.start.p0(i64 8, ptr %3) #4
  %4 = load ptr, ptr %2, align 8, !tbaa !52
  store ptr %4, ptr %3, align 8, !tbaa !30
  %5 = load ptr, ptr %3, align 8, !tbaa !30
  %6 = icmp ne ptr %5, null
  br i1 %6, label %7, label %26

7:                                                ; preds = %1
  %8 = load ptr, ptr %3, align 8, !tbaa !30
  %9 = getelementptr inbounds nuw %struct.opj_stream_private, ptr %8, i32 0, i32 1
  %10 = load ptr, ptr %9, align 8, !tbaa !54
  %11 = icmp ne ptr %10, null
  br i1 %11, label %12, label %19

12:                                               ; preds = %7
  %13 = load ptr, ptr %3, align 8, !tbaa !30
  %14 = getelementptr inbounds nuw %struct.opj_stream_private, ptr %13, i32 0, i32 1
  %15 = load ptr, ptr %14, align 8, !tbaa !54
  %16 = load ptr, ptr %3, align 8, !tbaa !30
  %17 = getelementptr inbounds nuw %struct.opj_stream_private, ptr %16, i32 0, i32 0
  %18 = load ptr, ptr %17, align 8, !tbaa !48
  call void %15(ptr noundef %18)
  br label %19

19:                                               ; preds = %12, %7
  %20 = load ptr, ptr %3, align 8, !tbaa !30
  %21 = getelementptr inbounds nuw %struct.opj_stream_private, ptr %20, i32 0, i32 7
  %22 = load ptr, ptr %21, align 8, !tbaa !34
  call void @opj_free(ptr noundef %22)
  %23 = load ptr, ptr %3, align 8, !tbaa !30
  %24 = getelementptr inbounds nuw %struct.opj_stream_private, ptr %23, i32 0, i32 7
  store ptr null, ptr %24, align 8, !tbaa !34
  %25 = load ptr, ptr %3, align 8, !tbaa !30
  call void @opj_free(ptr noundef %25)
  br label %26

26:                                               ; preds = %19, %1
  call void @llvm.lifetime.end.p0(i64 8, ptr %3) #4
  ret void
}