; Function Attrs: nounwind uwtable
define hidden void @opj_stream_destroy(ptr noundef %0) local_unnamed_addr #5 {
  %.not = icmp eq ptr %0, null
  br i1 %.not, label %10, label %2

2:                                                ; preds = %1
  %3 = getelementptr inbounds nuw i8, ptr %0, i64 8
  %4 = load ptr, ptr %3, align 8, !tbaa !40
  %.not9 = icmp eq ptr %4, null
  br i1 %.not9, label %7, label %5

5:                                                ; preds = %2
  %6 = load ptr, ptr %0, align 8, !tbaa !36
  tail call void %4(ptr noundef %6) #9
  br label %7

7:                                                ; preds = %5, %2
  %8 = getelementptr inbounds nuw i8, ptr %0, i64 56
  %9 = load ptr, ptr %8, align 8, !tbaa !24
  tail call void @opj_free(ptr noundef %9) #9
  store ptr null, ptr %8, align 8, !tbaa !24
  tail call void @opj_free(ptr noundef nonnull %0) #9
  br label %10

10:                                               ; preds = %7, %1
  ret void
}